target datalayout = "e-m:e-p270:32:32-p271:32:32-p272:64:64-i64:64-i128:128-f80:128-n8:16:32:64-S128"
target triple = "x86_64-pc-linux-gnu"

%struct._zval_struct = type { %union._zend_value, %union.anon, %union.anon.3 }
%union._zend_value = type { i64 }
%union.anon = type { i32 }
%union.anon.3 = type { i32 }
%struct._zend_op_array = type { i8, [3 x i8], i32, ptr, ptr, ptr, i32, i32, ptr, ptr, ptr, ptr, i32, i32, i32, i32, ptr, ptr, ptr, ptr, ptr, i32, i32, ptr, ptr, ptr, i32, i32, i32, i32, ptr, ptr, [6 x ptr] }
%struct._sccp_ctx = type { %struct._scdf_ctx, ptr, ptr, %struct._zval_struct, %struct._zval_struct }
%struct._scdf_ctx = type { ptr, ptr, ptr, ptr, ptr, ptr, ptr, i32, i32, i32, %struct.anon }
%struct.anon = type { ptr, ptr, ptr }
%struct._zend_ssa = type { %struct._zend_cfg, i32, i32, ptr, ptr, ptr, ptr }
%struct._zend_cfg = type { i32, i32, ptr, ptr, ptr, i32 }
%struct._zend_ssa_op = type { i32, i32, i32, i32, i32, i32, i32, i32, i32 }
%struct._zend_call_info = type { ptr, ptr, ptr, ptr, ptr, ptr, i8, i8, i8, i8, i8, i32, [1 x %struct._zend_send_arg_info] }
%struct._zend_send_arg_info = type { ptr }

; Function Attrs: nounwind uwtable
define internal i32 @remove_call(ptr noundef %0, ptr noundef %1, ptr noundef %2) #0 {
  %4 = alloca ptr, align 8
  %5 = alloca ptr, align 8
  %6 = alloca ptr, align 8
  %7 = alloca ptr, align 8
  %8 = alloca ptr, align 8
  %9 = alloca ptr, align 8
  %10 = alloca i32, align 4
  store ptr %0, ptr %4, align 8
  store ptr %1, ptr %5, align 8
  store ptr %2, ptr %6, align 8
  %11 = load ptr, ptr %4, align 8
  %12 = getelementptr inbounds %struct._sccp_ctx, ptr %11, i32 0, i32 0
  %13 = getelementptr inbounds %struct._scdf_ctx, ptr %12, i32 0, i32 1
  %14 = load ptr, ptr %13, align 8
  store ptr %14, ptr %7, align 8
  %15 = load ptr, ptr %4, align 8
  %16 = getelementptr inbounds %struct._sccp_ctx, ptr %15, i32 0, i32 0
  %17 = getelementptr inbounds %struct._scdf_ctx, ptr %16, i32 0, i32 0
  %18 = load ptr, ptr %17, align 8
  store ptr %18, ptr %8, align 8
  %19 = load ptr, ptr %4, align 8
  %20 = getelementptr inbounds %struct._sccp_ctx, ptr %19, i32 0, i32 1
  %21 = load ptr, ptr %20, align 8
  %22 = icmp ne ptr %21, null
  call void @llvm.assume(i1 %22)
  %23 = load ptr, ptr %4, align 8
  %24 = getelementptr inbounds %struct._sccp_ctx, ptr %23, i32 0, i32 1
  %25 = load ptr, ptr %24, align 8
  %26 = load ptr, ptr %5, align 8
  %27 = load ptr, ptr %8, align 8
  %28 = getelementptr inbounds %struct._zend_op_array, ptr %27, i32 0, i32 16
  %29 = load ptr, ptr %28, align 8
  %30 = ptrtoint ptr %26 to i64
  %31 = ptrtoint ptr %29 to i64
  %32 = sub i64 %30, %31
  %33 = sdiv exact i64 %32, 32
  %34 = getelementptr inbounds ptr, ptr %25, i64 %33
  %35 = load ptr, ptr %34, align 8
  store ptr %35, ptr %9, align 8
  %36 = load ptr, ptr %9, align 8
  %37 = icmp ne ptr %36, null
  call void @llvm.assume(i1 %37)
  %38 = load ptr, ptr %9, align 8
  %39 = getelementptr inbounds %struct._zend_call_info, ptr %38, i32 0, i32 2
  %40 = load ptr, ptr %39, align 8
  %41 = load ptr, ptr %5, align 8
  %42 = icmp eq ptr %40, %41
  call void @llvm.assume(i1 %42)
  %43 = load ptr, ptr %7, align 8
  %44 = load ptr, ptr %5, align 8
  %45 = load ptr, ptr %6, align 8
  call void @zend_ssa_remove_instr(ptr noundef %43, ptr noundef %44, ptr noundef %45)
  %46 = load ptr, ptr %7, align 8
  %47 = load ptr, ptr %9, align 8
  %48 = getelementptr inbounds %struct._zend_call_info, ptr %47, i32 0, i32 1
  %49 = load ptr, ptr %48, align 8
  %50 = load ptr, ptr %7, align 8
  %51 = getelementptr inbounds %struct._zend_ssa, ptr %50, i32 0, i32 4
  %52 = load ptr, ptr %51, align 8
  %53 = load ptr, ptr %9, align 8
  %54 = getelementptr inbounds %struct._zend_call_info, ptr %53, i32 0, i32 1
  %55 = load ptr, ptr %54, align 8
  %56 = load ptr, ptr %8, align 8
  %57 = getelementptr inbounds %struct._zend_op_array, ptr %56, i32 0, i32 16
  %58 = load ptr, ptr %57, align 8
  %59 = ptrtoint ptr %55 to i64
  %60 = ptrtoint ptr %58 to i64
  %61 = sub i64 %59, %60
  %62 = sdiv exact i64 %61, 32
  %63 = getelementptr inbounds %struct._zend_ssa_op, ptr %52, i64 %62
  call void @zend_ssa_remove_instr(ptr noundef %46, ptr noundef %49, ptr noundef %63)
  store i32 0, ptr %10, align 4
  br label %64

64:                                               ; preds = %97, %3
  %65 = load i32, ptr %10, align 4
  %66 = load ptr, ptr %9, align 8
  %67 = getelementptr inbounds %struct._zend_call_info, ptr %66, i32 0, i32 11
  %68 = load i32, ptr %67, align 8
  %69 = icmp slt i32 %65, %68
  br i1 %69, label %70, label %100

70:                                               ; preds = %64
  %71 = load ptr, ptr %7, align 8
  %72 = load ptr, ptr %9, align 8
  %73 = getelementptr inbounds %struct._zend_call_info, ptr %72, i32 0, i32 12
  %74 = load i32, ptr %10, align 4
  %75 = sext i32 %74 to i64
  %76 = getelementptr inbounds [1 x %struct._zend_send_arg_info], ptr %73, i64 0, i64 %75
  %77 = getelementptr inbounds %struct._zend_send_arg_info, ptr %76, i32 0, i32 0
  %78 = load ptr, ptr %77, align 8
  %79 = load ptr, ptr %7, align 8
  %80 = getelementptr inbounds %struct._zend_ssa, ptr %79, i32 0, i32 4
  %81 = load ptr, ptr %80, align 8
  %82 = load ptr, ptr %9, align 8
  %83 = getelementptr inbounds %struct._zend_call_info, ptr %82, i32 0, i32 12
  %84 = load i32, ptr %10, align 4
  %85 = sext i32 %84 to i64
  %86 = getelementptr inbounds [1 x %struct._zend_send_arg_info], ptr %83, i64 0, i64 %85
  %87 = getelementptr inbounds %struct._zend_send_arg_info, ptr %86, i32 0, i32 0
  %88 = load ptr, ptr %87, align 8
  %89 = load ptr, ptr %8, align 8
  %90 = getelementptr inbounds %struct._zend_op_array, ptr %89, i32 0, i32 16
  %91 = load ptr, ptr %90, align 8
  %92 = ptrtoint ptr %88 to i64
  %93 = ptrtoint ptr %91 to i64
  %94 = sub i64 %92, %93
  %95 = sdiv exact i64 %94, 32
  %96 = getelementptr inbounds %struct._zend_ssa_op, ptr %81, i64 %95
  call void @zend_ssa_remove_instr(ptr noundef %71, ptr noundef %78, ptr noundef %96)
  br label %97

97:                                               ; preds = %70
  %98 = load i32, ptr %10, align 4
  %99 = add nsw i32 %98, 1
  store i32 %99, ptr %10, align 4
  br label %64

100:                                              ; preds = %64
  %101 = load ptr, ptr %9, align 8
  %102 = getelementptr inbounds %struct._zend_call_info, ptr %101, i32 0, i32 3
  store ptr null, ptr %102, align 8
  %103 = load ptr, ptr %9, align 8
  %104 = getelementptr inbounds %struct._zend_call_info, ptr %103, i32 0, i32 11
  %105 = load i32, ptr %104, align 8
  %106 = add nsw i32 %105, 2
  ret i32 %106
}