; Function Attrs: nounwind uwtable
define internal fastcc i32 @remove_call(ptr nocapture noundef readonly %0, ptr noundef %1, ptr noundef %2) unnamed_addr #0 {
  %4 = getelementptr inbounds i8, ptr %0, i64 8
  %5 = load ptr, ptr %4, align 8
  %6 = load ptr, ptr %0, align 8
  %7 = getelementptr inbounds i8, ptr %0, i64 96
  %8 = load ptr, ptr %7, align 8, !nonnull !6, !noundef !6
  %9 = getelementptr inbounds i8, ptr %6, i64 88
  %10 = load ptr, ptr %9, align 8
  %11 = ptrtoint ptr %1 to i64
  %12 = ptrtoint ptr %10 to i64
  %13 = sub i64 %11, %12
  %14 = ashr exact i64 %13, 5
  %15 = getelementptr inbounds ptr, ptr %8, i64 %14
  %16 = load ptr, ptr %15, align 8, !nonnull !6, !noundef !6
  %17 = getelementptr inbounds i8, ptr %16, i64 16
  %18 = load ptr, ptr %17, align 8
  %19 = icmp eq ptr %18, %1
  tail call void @llvm.assume(i1 %19)
  tail call void @zend_ssa_remove_instr(ptr noundef %5, ptr noundef %1, ptr noundef %2) #13
  %20 = getelementptr inbounds i8, ptr %16, i64 8
  %21 = load ptr, ptr %20, align 8
  %22 = getelementptr inbounds i8, ptr %5, i64 56
  %23 = load ptr, ptr %22, align 8
  %24 = load ptr, ptr %9, align 8
  %25 = ptrtoint ptr %21 to i64
  %26 = ptrtoint ptr %24 to i64
  %27 = sub i64 %25, %26
  %28 = ashr exact i64 %27, 5
  %29 = getelementptr inbounds %struct._zend_ssa_op, ptr %23, i64 %28
  tail call void @zend_ssa_remove_instr(ptr noundef %5, ptr noundef %21, ptr noundef %29) #13
  %30 = getelementptr inbounds i8, ptr %16, i64 56
  %31 = load i32, ptr %30, align 8
  %32 = icmp sgt i32 %31, 0
  br i1 %32, label %.lr.ph, label %._crit_edge

.lr.ph:                                           ; preds = %3
  %33 = getelementptr inbounds i8, ptr %16, i64 64
  br label %34

34:                                               ; preds = %.lr.ph, %34
  %indvars.iv = phi i64 [ 0, %.lr.ph ], [ %indvars.iv.next, %34 ]
  %35 = getelementptr inbounds [1 x %struct._zend_send_arg_info], ptr %33, i64 0, i64 %indvars.iv
  %36 = load ptr, ptr %35, align 8
  %37 = load ptr, ptr %22, align 8
  %38 = load ptr, ptr %9, align 8
  %39 = ptrtoint ptr %36 to i64
  %40 = ptrtoint ptr %38 to i64
  %41 = sub i64 %39, %40
  %42 = ashr exact i64 %41, 5
  %43 = getelementptr inbounds %struct._zend_ssa_op, ptr %37, i64 %42
  tail call void @zend_ssa_remove_instr(ptr noundef nonnull %5, ptr noundef %36, ptr noundef %43) #13
  %indvars.iv.next = add nuw nsw i64 %indvars.iv, 1
  %44 = load i32, ptr %30, align 8
  %45 = sext i32 %44 to i64
  %46 = icmp slt i64 %indvars.iv.next, %45
  br i1 %46, label %34, label %._crit_edge

._crit_edge:                                      ; preds = %34, %3
  %.lcssa = phi i32 [ %31, %3 ], [ %44, %34 ]
  %47 = getelementptr inbounds i8, ptr %16, i64 24
  store ptr null, ptr %47, align 8
  %48 = add nsw i32 %.lcssa, 2
  ret i32 %48
}